; Function Attrs: mustprogress uwtable
define hidden noundef zeroext i1 @_ZN4cvc58internal6theory2bv19checkMaybeBitVectorERKNS0_8TypeNodeEPSo(ptr noundef nonnull align 8 dereferenceable(8) %0, ptr noundef %1) local_unnamed_addr #3 {
  %3 = tail call noundef zeroext i1 @_ZNK4cvc58internal8TypeNode11isMaybeKindENS0_4kind6Kind_tE(ptr noundef nonnull align 8 dereferenceable(8) %0, i32 noundef 87)
  %.not = icmp eq ptr %1, null
  %or.cond = or i1 %.not, %3
  br i1 %or.cond, label %6, label %4

4:                                                ; preds = %2
  %5 = tail call noundef nonnull align 8 dereferenceable(8) ptr @_ZSt16__ostream_insertIcSt11char_traitsIcEERSt13basic_ostreamIT_T0_ES6_PKS3_l(ptr noundef nonnull align 8 dereferenceable(8) %1, ptr noundef nonnull @.str, i64 noundef 27)
  br label %6

6:                                                ; preds = %4, %2
  ret i1 %3
}